; Function Attrs: nounwind uwtable
define noalias noundef ptr @Saig_StrSimPerformMatching_hack(ptr noundef readonly captures(none) %0, ptr noundef readnone captures(none) %1) local_unnamed_addr #1 {
  %3 = tail call noalias dereferenceable_or_null(16) ptr @malloc(i64 noundef 16) #14
  %4 = getelementptr inbounds nuw i8, ptr %3, i64 4
  store i32 0, ptr %4, align 4, !tbaa !11
  store i32 100, ptr %3, align 8, !tbaa !14
  %5 = tail call noalias dereferenceable_or_null(400) ptr @malloc(i64 noundef 400) #14
  %6 = getelementptr inbounds nuw i8, ptr %3, i64 8
  store ptr %5, ptr %6, align 8, !tbaa !15
  %7 = getelementptr inbounds nuw i8, ptr %0, i64 32
  %8 = load ptr, ptr %7, align 8, !tbaa !28
  %9 = getelementptr i8, ptr %8, i64 4
  %.val1628 = load i32, ptr %9, align 4, !tbaa !44
  %10 = icmp sgt i32 %.val1628, 0
  br i1 %10, label %.lr.ph, label %.critedge

.lr.ph:                                           ; preds = %2, %70
  %11 = phi ptr [ %71, %70 ], [ %8, %2 ]
  %.pre.i2233 = phi ptr [ %.pre.i2234, %70 ], [ %5, %2 ]
  %12 = phi ptr [ %.pre.i32, %70 ], [ %5, %2 ]
  %indvars.iv = phi i64 [ %indvars.iv.next, %70 ], [ 0, %2 ]
  %13 = getelementptr i8, ptr %11, i64 8
  %.val = load ptr, ptr %13, align 8, !tbaa !30
  %14 = getelementptr inbounds nuw ptr, ptr %.val, i64 %indvars.iv
  %15 = load ptr, ptr %14, align 8, !tbaa !32
  %16 = icmp eq ptr %15, null
  br i1 %16, label %70, label %17

17:                                               ; preds = %.lr.ph
  %18 = getelementptr i8, ptr %15, i64 24
  %.val19 = load i64, ptr %18, align 8
  %19 = and i64 %.val19, 7
  %.off = add nsw i64 %19, -1
  %switch = icmp ult i64 %.off, 2
  br i1 %switch, label %24, label %20

20:                                               ; preds = %17
  %21 = trunc i64 %.val19 to i32
  %22 = and i32 %21, 7
  %23 = add nsw i32 %22, -7
  %narrow.i = icmp ult i32 %23, -2
  br i1 %narrow.i, label %70, label %24

24:                                               ; preds = %17, %20
  %25 = load i32, ptr %4, align 4, !tbaa !11
  %26 = load i32, ptr %3, align 8, !tbaa !14
  %27 = icmp eq i32 %25, %26
  br i1 %27, label %28, label %Vec_IntPush.exit

28:                                               ; preds = %24
  %29 = icmp slt i32 %25, 16
  br i1 %29, label %30, label %35

30:                                               ; preds = %28
  %.not9.i.i = icmp eq ptr %12, null
  br i1 %.not9.i.i, label %33, label %31

31:                                               ; preds = %30
  %32 = tail call dereferenceable_or_null(64) ptr @realloc(ptr noundef nonnull %12, i64 noundef 64) #13
  br label %Vec_IntPush.exit.sink.split

33:                                               ; preds = %30
  %34 = tail call noalias dereferenceable_or_null(64) ptr @malloc(i64 noundef 64) #14
  br label %Vec_IntPush.exit.sink.split

35:                                               ; preds = %28
  %36 = shl nuw nsw i32 %25, 1
  %.not9.i9.i = icmp eq ptr %12, null
  %37 = zext nneg i32 %36 to i64
  %38 = shl nuw nsw i64 %37, 2
  br i1 %.not9.i9.i, label %41, label %39

39:                                               ; preds = %35
  %40 = tail call ptr @realloc(ptr noundef nonnull %12, i64 noundef %38) #13
  br label %Vec_IntPush.exit.sink.split

41:                                               ; preds = %35
  %42 = tail call noalias ptr @malloc(i64 noundef %38) #14
  br label %Vec_IntPush.exit.sink.split

Vec_IntPush.exit.sink.split:                      ; preds = %39, %41, %31, %33
  %.sink38 = phi ptr [ %32, %31 ], [ %34, %33 ], [ %40, %39 ], [ %42, %41 ]
  %.sink = phi i32 [ 16, %31 ], [ 16, %33 ], [ %36, %39 ], [ %36, %41 ]
  store ptr %.sink38, ptr %6, align 8, !tbaa !15
  store i32 %.sink, ptr %3, align 8, !tbaa !14
  br label %Vec_IntPush.exit

Vec_IntPush.exit:                                 ; preds = %Vec_IntPush.exit.sink.split, %24
  %43 = phi ptr [ %.pre.i2233, %24 ], [ %.sink38, %Vec_IntPush.exit.sink.split ]
  %44 = phi ptr [ %12, %24 ], [ %.sink38, %Vec_IntPush.exit.sink.split ]
  %45 = add nsw i32 %25, 1
  store i32 %45, ptr %4, align 4, !tbaa !11
  %46 = sext i32 %25 to i64
  %47 = getelementptr inbounds i32, ptr %44, i64 %46
  %48 = trunc nuw nsw i64 %indvars.iv to i32
  store i32 %48, ptr %47, align 4, !tbaa !16
  %49 = load i32, ptr %4, align 4, !tbaa !11
  %50 = load i32, ptr %3, align 8, !tbaa !14
  %51 = icmp eq i32 %49, %50
  br i1 %51, label %52, label %Vec_IntPush.exit26

52:                                               ; preds = %Vec_IntPush.exit
  %53 = icmp slt i32 %49, 16
  br i1 %53, label %54, label %59

54:                                               ; preds = %52
  %.not9.i.i24 = icmp eq ptr %43, null
  br i1 %.not9.i.i24, label %57, label %55

55:                                               ; preds = %54
  %56 = tail call dereferenceable_or_null(64) ptr @realloc(ptr noundef nonnull %43, i64 noundef 64) #13
  br label %Vec_IntPush.exit26.sink.split

57:                                               ; preds = %54
  %58 = tail call noalias dereferenceable_or_null(64) ptr @malloc(i64 noundef 64) #14
  br label %Vec_IntPush.exit26.sink.split

59:                                               ; preds = %52
  %60 = shl nuw nsw i32 %49, 1
  %.not9.i9.i23 = icmp eq ptr %43, null
  %61 = zext nneg i32 %60 to i64
  %62 = shl nuw nsw i64 %61, 2
  br i1 %.not9.i9.i23, label %65, label %63

63:                                               ; preds = %59
  %64 = tail call ptr @realloc(ptr noundef nonnull %43, i64 noundef %62) #13
  br label %Vec_IntPush.exit26.sink.split

65:                                               ; preds = %59
  %66 = tail call noalias ptr @malloc(i64 noundef %62) #14
  br label %Vec_IntPush.exit26.sink.split

Vec_IntPush.exit26.sink.split:                    ; preds = %63, %65, %55, %57
  %.sink40 = phi ptr [ %56, %55 ], [ %58, %57 ], [ %64, %63 ], [ %66, %65 ]
  %.sink39 = phi i32 [ 16, %55 ], [ 16, %57 ], [ %60, %63 ], [ %60, %65 ]
  store ptr %.sink40, ptr %6, align 8, !tbaa !15
  store i32 %.sink39, ptr %3, align 8, !tbaa !14
  br label %Vec_IntPush.exit26

Vec_IntPush.exit26:                               ; preds = %Vec_IntPush.exit26.sink.split, %Vec_IntPush.exit
  %.pre.i2235 = phi ptr [ %43, %Vec_IntPush.exit ], [ %.sink40, %Vec_IntPush.exit26.sink.split ]
  %67 = add nsw i32 %49, 1
  store i32 %67, ptr %4, align 4, !tbaa !11
  %68 = sext i32 %49 to i64
  %69 = getelementptr inbounds i32, ptr %.pre.i2235, i64 %68
  store i32 %48, ptr %69, align 4, !tbaa !16
  %.pre = load ptr, ptr %7, align 8, !tbaa !28
  br label %70

70:                                               ; preds = %Vec_IntPush.exit26, %.lr.ph, %20
  %71 = phi ptr [ %.pre, %Vec_IntPush.exit26 ], [ %11, %.lr.ph ], [ %11, %20 ]
  %.pre.i2234 = phi ptr [ %.pre.i2235, %Vec_IntPush.exit26 ], [ %.pre.i2233, %.lr.ph ], [ %.pre.i2233, %20 ]
  %.pre.i32 = phi ptr [ %.pre.i2235, %Vec_IntPush.exit26 ], [ %12, %.lr.ph ], [ %12, %20 ]
  %indvars.iv.next = add nuw nsw i64 %indvars.iv, 1
  %72 = getelementptr i8, ptr %71, i64 4
  %.val16 = load i32, ptr %72, align 4, !tbaa !44
  %73 = sext i32 %.val16 to i64
  %74 = icmp slt i64 %indvars.iv.next, %73
  br i1 %74, label %.lr.ph, label %.critedge, !llvm.loop !87

.critedge:                                        ; preds = %70, %2
  ret ptr %3
}